target datalayout = "e-m:e-p270:32:32-p271:32:32-p272:64:64-i64:64-i128:128-f80:128-n8:16:32:64-S128"
target triple = "x86_64-pc-linux-gnu"

%struct.mbedtls_cipher_definition_t = type { i32, ptr }

@_ZL14supported_init = internal global i32 0, align 4
@mbedtls_cipher_definitions = external global [0 x %struct.mbedtls_cipher_definition_t], align 8
@mbedtls_cipher_supported = external global [0 x i32], align 4

; Function Attrs: mustprogress nounwind uwtable
define hidden ptr @mbedtls_cipher_list() #0 {
  %1 = alloca ptr, align 8
  %2 = alloca ptr, align 8
  call void @llvm.lifetime.start.p0(i64 8, ptr %1) #8
  call void @llvm.lifetime.start.p0(i64 8, ptr %2) #8
  %3 = load i32, ptr @_ZL14supported_init, align 4, !tbaa !3
  %4 = icmp ne i32 %3, 0
  br i1 %4, label %20, label %5

5:                                                ; preds = %0
  store ptr @mbedtls_cipher_definitions, ptr %1, align 8, !tbaa !7
  store ptr @mbedtls_cipher_supported, ptr %2, align 8, !tbaa !9
  br label %6

6:                                                ; preds = %11, %5
  %7 = load ptr, ptr %1, align 8, !tbaa !7
  %8 = getelementptr inbounds nuw %struct.mbedtls_cipher_definition_t, ptr %7, i32 0, i32 0
  %9 = load i32, ptr %8, align 8, !tbaa !11
  %10 = icmp ne i32 %9, 0
  br i1 %10, label %11, label %18

11:                                               ; preds = %6
  %12 = load ptr, ptr %1, align 8, !tbaa !7
  %13 = getelementptr inbounds nuw %struct.mbedtls_cipher_definition_t, ptr %12, i32 1
  store ptr %13, ptr %1, align 8, !tbaa !7
  %14 = getelementptr inbounds nuw %struct.mbedtls_cipher_definition_t, ptr %12, i32 0, i32 0
  %15 = load i32, ptr %14, align 8, !tbaa !11
  %16 = load ptr, ptr %2, align 8, !tbaa !9
  %17 = getelementptr inbounds nuw i32, ptr %16, i32 1
  store ptr %17, ptr %2, align 8, !tbaa !9
  store i32 %15, ptr %16, align 4, !tbaa !3
  br label %6, !llvm.loop !15

18:                                               ; preds = %6
  %19 = load ptr, ptr %2, align 8, !tbaa !9
  store i32 0, ptr %19, align 4, !tbaa !3
  store i32 1, ptr @_ZL14supported_init, align 4, !tbaa !3
  br label %20

20:                                               ; preds = %18, %0
  call void @llvm.lifetime.end.p0(i64 8, ptr %2) #8
  call void @llvm.lifetime.end.p0(i64 8, ptr %1) #8
  ret ptr @mbedtls_cipher_supported
}