; Function Attrs: mustprogress nofree norecurse nosync nounwind memory(readwrite, argmem: none, inaccessiblemem: none) uwtable
define hidden noundef nonnull ptr @mbedtls_cipher_list() local_unnamed_addr #0 {
  %.b = load i1, ptr @_ZL14supported_init, align 4
  br i1 %.b, label %6, label %.preheader

.preheader:                                       ; preds = %0
  %1 = load i32, ptr @mbedtls_cipher_definitions, align 8, !tbaa !3
  %.not6 = icmp eq i32 %1, 0
  br i1 %.not6, label %._crit_edge, label %.lr.ph

.lr.ph:                                           ; preds = %.preheader, %.lr.ph
  %2 = phi i32 [ %5, %.lr.ph ], [ %1, %.preheader ]
  %.08 = phi ptr [ %4, %.lr.ph ], [ @mbedtls_cipher_supported, %.preheader ]
  %.047 = phi ptr [ %3, %.lr.ph ], [ @mbedtls_cipher_definitions, %.preheader ]
  %3 = getelementptr inbounds nuw i8, ptr %.047, i64 16
  %4 = getelementptr inbounds nuw i8, ptr %.08, i64 4
  store i32 %2, ptr %.08, align 4, !tbaa !10
  %5 = load i32, ptr %3, align 8, !tbaa !3
  %.not = icmp eq i32 %5, 0
  br i1 %.not, label %._crit_edge, label %.lr.ph, !llvm.loop !12

._crit_edge:                                      ; preds = %.lr.ph, %.preheader
  %.0.lcssa = phi ptr [ @mbedtls_cipher_supported, %.preheader ], [ %4, %.lr.ph ]
  store i32 0, ptr %.0.lcssa, align 4, !tbaa !10
  store i1 true, ptr @_ZL14supported_init, align 4
  br label %6

6:                                                ; preds = %._crit_edge, %0
  ret ptr @mbedtls_cipher_supported
}